target datalayout = "e-m:e-p270:32:32-p271:32:32-p272:64:64-i64:64-i128:128-f80:128-n8:16:32:64-S128"
target triple = "x86_64-unknown-linux-gnu"

%struct._GArray = type { ptr, i32 }
%struct.Range = type { i64, i64 }

@debug_regions = internal global ptr null, align 8

; Function Attrs: nounwind sspstrong uwtable
define internal zeroext i1 @range_contains(ptr noundef %range, i64 noundef %val) #0 {
entry:
  %range.addr = alloca ptr, align 8
  %val.addr = alloca i64, align 8
  store ptr %range, ptr %range.addr, align 8
  store i64 %val, ptr %val.addr, align 8
  %0 = load i64, ptr %val.addr, align 8
  %1 = load ptr, ptr %range.addr, align 8
  %lob = getelementptr inbounds %struct.Range, ptr %1, i32 0, i32 0
  %2 = load i64, ptr %lob, align 8
  %cmp = icmp uge i64 %0, %2
  br i1 %cmp, label %land.rhs, label %land.end

land.rhs:                                         ; preds = %entry
  %3 = load i64, ptr %val.addr, align 8
  %4 = load ptr, ptr %range.addr, align 8
  %upb = getelementptr inbounds %struct.Range, ptr %4, i32 0, i32 1
  %5 = load i64, ptr %upb, align 8
  %cmp1 = icmp ule i64 %3, %5
  br label %land.end

land.end:                                         ; preds = %land.rhs, %entry
  %6 = phi i1 [ false, %entry ], [ %cmp1, %land.rhs ]
  ret i1 %6
}

; Function Attrs: nounwind sspstrong uwtable
define dso_local zeroext i1 @qemu_log_in_addr_range(i64 noundef %addr) #0 {
entry:
  %retval = alloca i1, align 1
  %addr.addr = alloca i64, align 8
  %i = alloca i32, align 4
  %range = alloca ptr, align 8
  store i64 %addr, ptr %addr.addr, align 8
  %0 = load ptr, ptr @debug_regions, align 8
  %tobool = icmp ne ptr %0, null
  br i1 %tobool, label %if.then, label %if.else

if.then:                                          ; preds = %entry
  store i32 0, ptr %i, align 4
  store i32 0, ptr %i, align 4
  br label %for.cond

for.cond:                                         ; preds = %for.inc, %if.then
  %1 = load i32, ptr %i, align 4
  %2 = load ptr, ptr @debug_regions, align 8
  %len = getelementptr inbounds %struct._GArray, ptr %2, i32 0, i32 1
  %3 = load i32, ptr %len, align 8
  %cmp = icmp ult i32 %1, %3
  br i1 %cmp, label %for.body, label %for.end

for.body:                                         ; preds = %for.cond
  %4 = load ptr, ptr @debug_regions, align 8
  %data = getelementptr inbounds %struct._GArray, ptr %4, i32 0, i32 0
  %5 = load ptr, ptr %data, align 8
  %6 = load i32, ptr %i, align 4
  %idxprom = sext i32 %6 to i64
  %arrayidx = getelementptr %struct.Range, ptr %5, i64 %idxprom
  store ptr %arrayidx, ptr %range, align 8
  %7 = load ptr, ptr %range, align 8
  %8 = load i64, ptr %addr.addr, align 8
  %call = call zeroext i1 @range_contains(ptr noundef %7, i64 noundef %8)
  br i1 %call, label %if.then1, label %if.end

if.then1:                                         ; preds = %for.body
  store i1 true, ptr %retval, align 1
  br label %return

if.end:                                           ; preds = %for.body
  br label %for.inc

for.inc:                                          ; preds = %if.end
  %9 = load i32, ptr %i, align 4
  %inc = add i32 %9, 1
  store i32 %inc, ptr %i, align 4
  br label %for.cond, !llvm.loop !7

for.end:                                          ; preds = %for.cond
  store i1 false, ptr %retval, align 1
  br label %return

if.else:                                          ; preds = %entry
  store i1 true, ptr %retval, align 1
  br label %return

return:                                           ; preds = %if.else, %for.end, %if.then1
  %10 = load i1, ptr %retval, align 1
  ret i1 %10
}