; Function Attrs: nofree norecurse nosync nounwind sspstrong memory(read, inaccessiblemem: none) uwtable
define dso_local noundef zeroext i1 @qemu_log_in_addr_range(i64 noundef %addr) local_unnamed_addr #5 {
entry:
  %0 = load ptr, ptr @debug_regions, align 8
  %tobool.not = icmp eq ptr %0, null
  br i1 %tobool.not, label %return, label %for.cond.preheader

for.cond.preheader:                               ; preds = %entry
  %len = getelementptr inbounds nuw i8, ptr %0, i64 8
  %1 = load i32, ptr %len, align 8
  %cmp3.not = icmp eq i32 %1, 0
  br i1 %cmp3.not, label %return, label %for.body.lr.ph

for.body.lr.ph:                                   ; preds = %for.cond.preheader
  %2 = load ptr, ptr %0, align 8
  br label %for.body

for.body:                                         ; preds = %for.body.lr.ph, %for.inc
  %i.04 = phi i32 [ 0, %for.body.lr.ph ], [ %inc, %for.inc ]
  %idxprom = sext i32 %i.04 to i64
  %arrayidx = getelementptr %struct.Range, ptr %2, i64 %idxprom
  %3 = load i64, ptr %arrayidx, align 8
  %cmp.not.i = icmp ult i64 %addr, %3
  br i1 %cmp.not.i, label %for.inc, label %range_contains.exit

range_contains.exit:                              ; preds = %for.body
  %upb.i = getelementptr inbounds nuw i8, ptr %arrayidx, i64 8
  %4 = load i64, ptr %upb.i, align 8
  %cmp1.i.not = icmp ugt i64 %addr, %4
  br i1 %cmp1.i.not, label %for.inc, label %return

for.inc:                                          ; preds = %for.body, %range_contains.exit
  %inc = add nuw i32 %i.04, 1
  %exitcond.not = icmp eq i32 %inc, %1
  br i1 %exitcond.not, label %return, label %for.body, !llvm.loop !8

return:                                           ; preds = %range_contains.exit, %for.inc, %for.cond.preheader, %entry
  %retval.0 = phi i1 [ true, %entry ], [ false, %for.cond.preheader ], [ true, %range_contains.exit ], [ false, %for.inc ]
  ret i1 %retval.0
}